; Function Attrs: nofree norecurse nosync nounwind memory(argmem: readwrite) uwtable
define hidden void @cfl_subtract_average_32x32_c(ptr nocapture noundef readonly %0, ptr nocapture noundef writeonly %1) #5 {
  br label %.preheader34.us.i

.preheader34.us.i:                                ; preds = %._crit_edge.us.i, %2
  %.02939.us.i = phi i32 [ %9, %._crit_edge.us.i ], [ 0, %2 ]
  %.03038.us.i = phi ptr [ %8, %._crit_edge.us.i ], [ %0, %2 ]
  %.03137.us.i = phi i32 [ %7, %._crit_edge.us.i ], [ 512, %2 ]
  br label %3

3:                                                ; preds = %3, %.preheader34.us.i
  %indvars.iv.i = phi i64 [ 0, %.preheader34.us.i ], [ %indvars.iv.next.i, %3 ]
  %.135.us.i = phi i32 [ %.03137.us.i, %.preheader34.us.i ], [ %7, %3 ]
  %4 = getelementptr inbounds i16, ptr %.03038.us.i, i64 %indvars.iv.i
  %5 = load i16, ptr %4, align 2
  %6 = zext i16 %5 to i32
  %7 = add nsw i32 %.135.us.i, %6
  %indvars.iv.next.i = add nuw nsw i64 %indvars.iv.i, 1
  %exitcond.not.i = icmp eq i64 %indvars.iv.next.i, 32
  br i1 %exitcond.not.i, label %._crit_edge.us.i, label %3, !llvm.loop !7

._crit_edge.us.i:                                 ; preds = %3
  %8 = getelementptr inbounds i8, ptr %.03038.us.i, i64 64
  %9 = add nuw nsw i32 %.02939.us.i, 1
  %exitcond51.not.i = icmp eq i32 %9, 32
  br i1 %exitcond51.not.i, label %._crit_edge40.i, label %.preheader34.us.i, !llvm.loop !8

._crit_edge40.i:                                  ; preds = %._crit_edge.us.i
  %10 = lshr i32 %7, 10
  %11 = trunc i32 %10 to i16
  br label %.preheader.us.i

.preheader.us.i:                                  ; preds = %._crit_edge.us47.i, %._crit_edge40.i
  %.02645.us.i = phi i32 [ %19, %._crit_edge.us47.i ], [ 0, %._crit_edge40.i ]
  %.02744.us.i = phi ptr [ %17, %._crit_edge.us47.i ], [ %0, %._crit_edge40.i ]
  %.03243.us.i = phi ptr [ %18, %._crit_edge.us47.i ], [ %1, %._crit_edge40.i ]
  br label %12

12:                                               ; preds = %12, %.preheader.us.i
  %indvars.iv52.i = phi i64 [ 0, %.preheader.us.i ], [ %indvars.iv.next53.i, %12 ]
  %13 = getelementptr inbounds i16, ptr %.02744.us.i, i64 %indvars.iv52.i
  %14 = load i16, ptr %13, align 2
  %15 = sub i16 %14, %11
  %16 = getelementptr inbounds i16, ptr %.03243.us.i, i64 %indvars.iv52.i
  store i16 %15, ptr %16, align 2
  %indvars.iv.next53.i = add nuw nsw i64 %indvars.iv52.i, 1
  %exitcond56.not.i = icmp eq i64 %indvars.iv.next53.i, 32
  br i1 %exitcond56.not.i, label %._crit_edge.us47.i, label %12, !llvm.loop !9

._crit_edge.us47.i:                               ; preds = %12
  %17 = getelementptr inbounds i8, ptr %.02744.us.i, i64 64
  %18 = getelementptr inbounds i8, ptr %.03243.us.i, i64 64
  %19 = add nuw nsw i32 %.02645.us.i, 1
  %exitcond57.not.i = icmp eq i32 %19, 32
  br i1 %exitcond57.not.i, label %subtract_average_c.exit, label %.preheader.us.i, !llvm.loop !10

subtract_average_c.exit:                          ; preds = %._crit_edge.us47.i
  ret void
}